; Function Attrs: mustprogress nofree norecurse nosync nounwind willreturn memory(argmem: write) uwtable
define void @_ZN5faiss21IntersectionCriterionC2Ell(ptr nocapture noundef nonnull writeonly align 8 dereferenceable(88) %0, i64 noundef %1, i64 noundef %2) unnamed_addr #5 align 2 {
  %4 = getelementptr inbounds i8, ptr %0, i64 8
  store i64 %1, ptr %4, align 8
  %5 = getelementptr inbounds i8, ptr %0, i64 16
  store i64 %2, ptr %5, align 8
  %6 = getelementptr inbounds i8, ptr %0, i64 24
  tail call void @llvm.memset.p0.i64(ptr noundef nonnull align 8 dereferenceable(56) %6, i8 0, i64 56, i1 false)
  store ptr getelementptr inbounds ({ [5 x ptr] }, ptr @_ZTVN5faiss21IntersectionCriterionE, i64 0, i32 0, i64 2), ptr %0, align 8
  %7 = getelementptr inbounds i8, ptr %0, i64 80
  store i64 %2, ptr %7, align 8
  ret void
}